target datalayout = "e-m:e-p270:32:32-p271:32:32-p272:64:64-i64:64-i128:128-f80:128-n8:16:32:64-S128"
target triple = "x86_64-pc-linux-gnu"

%struct.lua_TValue = type { %union.Value, [1 x i32], i32 }
%union.Value = type { ptr }

; Function Attrs: mustprogress nounwind uwtable
define internal noundef i32 @_ZL14luauF_byteswapP9lua_StateP10lua_TValueS2_iS2_i(ptr noundef %0, ptr noundef %1, ptr noundef %2, i32 noundef %3, ptr noundef %4, i32 noundef %5) #0 {
  %7 = alloca i32, align 4
  %8 = alloca ptr, align 8
  %9 = alloca ptr, align 8
  %10 = alloca ptr, align 8
  %11 = alloca i32, align 4
  %12 = alloca ptr, align 8
  %13 = alloca i32, align 4
  %14 = alloca double, align 8
  %15 = alloca i32, align 4
  %16 = alloca ptr, align 8
  store ptr %0, ptr %8, align 8, !tbaa !4
  store ptr %1, ptr %9, align 8, !tbaa !9
  store ptr %2, ptr %10, align 8, !tbaa !9
  store i32 %3, ptr %11, align 4, !tbaa !11
  store ptr %4, ptr %12, align 8, !tbaa !9
  store i32 %5, ptr %13, align 4, !tbaa !11
  %17 = load i32, ptr %13, align 4, !tbaa !11
  %18 = icmp sge i32 %17, 1
  br i1 %18, label %19, label %54

19:                                               ; preds = %6
  %20 = load i32, ptr %11, align 4, !tbaa !11
  %21 = icmp sle i32 %20, 1
  br i1 %21, label %22, label %54

22:                                               ; preds = %19
  %23 = load ptr, ptr %10, align 8, !tbaa !9
  %24 = getelementptr inbounds nuw %struct.lua_TValue, ptr %23, i32 0, i32 2
  %25 = load i32, ptr %24, align 4, !tbaa !13
  %26 = icmp eq i32 %25, 3
  br i1 %26, label %27, label %54

27:                                               ; preds = %22
  call void @llvm.lifetime.start.p0(i64 8, ptr %14) #17
  %28 = load ptr, ptr %10, align 8, !tbaa !9
  %29 = getelementptr inbounds nuw %struct.lua_TValue, ptr %28, i32 0, i32 0
  %30 = load double, ptr %29, align 8, !tbaa !15
  store double %30, ptr %14, align 8, !tbaa !16
  call void @llvm.lifetime.start.p0(i64 4, ptr %15) #17
  %31 = load double, ptr %14, align 8, !tbaa !16
  %32 = fptosi double %31 to i64
  %33 = trunc i64 %32 to i32
  store i32 %33, ptr %15, align 4, !tbaa !11
  %34 = load i32, ptr %15, align 4, !tbaa !11
  %35 = shl i32 %34, 24
  %36 = load i32, ptr %15, align 4, !tbaa !11
  %37 = shl i32 %36, 8
  %38 = and i32 %37, 16711680
  %39 = or i32 %35, %38
  %40 = load i32, ptr %15, align 4, !tbaa !11
  %41 = lshr i32 %40, 8
  %42 = and i32 %41, 65280
  %43 = or i32 %39, %42
  %44 = load i32, ptr %15, align 4, !tbaa !11
  %45 = lshr i32 %44, 24
  %46 = or i32 %43, %45
  store i32 %46, ptr %15, align 4, !tbaa !11
  call void @llvm.lifetime.start.p0(i64 8, ptr %16) #17
  %47 = load ptr, ptr %9, align 8, !tbaa !9
  store ptr %47, ptr %16, align 8, !tbaa !9
  %48 = load i32, ptr %15, align 4, !tbaa !11
  %49 = uitofp i32 %48 to double
  %50 = load ptr, ptr %16, align 8, !tbaa !9
  %51 = getelementptr inbounds nuw %struct.lua_TValue, ptr %50, i32 0, i32 0
  store double %49, ptr %51, align 8, !tbaa !15
  %52 = load ptr, ptr %16, align 8, !tbaa !9
  %53 = getelementptr inbounds nuw %struct.lua_TValue, ptr %52, i32 0, i32 2
  store i32 3, ptr %53, align 4, !tbaa !13
  call void @llvm.lifetime.end.p0(i64 8, ptr %16) #17
  store i32 1, ptr %7, align 4
  call void @llvm.lifetime.end.p0(i64 4, ptr %15) #17
  call void @llvm.lifetime.end.p0(i64 8, ptr %14) #17
  br label %55

54:                                               ; preds = %22, %19, %6
  store i32 -1, ptr %7, align 4
  br label %55

55:                                               ; preds = %54, %27
  %56 = load i32, ptr %7, align 4
  ret i32 %56
}